target datalayout = "e-m:e-p270:32:32-p271:32:32-p272:64:64-i64:64-i128:128-f80:128-n8:16:32:64-S128"
target triple = "x86_64-pc-linux-gnu"

%struct.avifAlphaParams = type { i32, i32, i32, ptr, i32, i32, i32, i32, ptr, i32, i32, i32 }

; Function Attrs: nounwind uwtable
define hidden void @avifFillAlpha(ptr noundef %0) #0 {
  %2 = alloca ptr, align 8
  %3 = alloca i16, align 2
  %4 = alloca i32, align 4
  %5 = alloca ptr, align 8
  %6 = alloca i32, align 4
  %7 = alloca i8, align 1
  %8 = alloca i32, align 4
  %9 = alloca ptr, align 8
  %10 = alloca i32, align 4
  store ptr %0, ptr %2, align 8
  %11 = load ptr, ptr %2, align 8
  %12 = getelementptr inbounds nuw %struct.avifAlphaParams, ptr %11, i32 0, i32 7
  %13 = load i32, ptr %12, align 4
  %14 = icmp ugt i32 %13, 8
  br i1 %14, label %15, label %66

15:                                               ; preds = %1
  %16 = load ptr, ptr %2, align 8
  %17 = getelementptr inbounds nuw %struct.avifAlphaParams, ptr %16, i32 0, i32 7
  %18 = load i32, ptr %17, align 4
  %19 = shl i32 1, %18
  %20 = sub nsw i32 %19, 1
  %21 = trunc i32 %20 to i16
  store i16 %21, ptr %3, align 2
  store i32 0, ptr %4, align 4
  br label %22

22:                                               ; preds = %62, %15
  %23 = load i32, ptr %4, align 4
  %24 = load ptr, ptr %2, align 8
  %25 = getelementptr inbounds nuw %struct.avifAlphaParams, ptr %24, i32 0, i32 1
  %26 = load i32, ptr %25, align 4
  %27 = icmp ult i32 %23, %26
  br i1 %27, label %28, label %65

28:                                               ; preds = %22
  %29 = load ptr, ptr %2, align 8
  %30 = getelementptr inbounds nuw %struct.avifAlphaParams, ptr %29, i32 0, i32 8
  %31 = load ptr, ptr %30, align 8
  %32 = load ptr, ptr %2, align 8
  %33 = getelementptr inbounds nuw %struct.avifAlphaParams, ptr %32, i32 0, i32 10
  %34 = load i32, ptr %33, align 4
  %35 = load i32, ptr %4, align 4
  %36 = load ptr, ptr %2, align 8
  %37 = getelementptr inbounds nuw %struct.avifAlphaParams, ptr %36, i32 0, i32 9
  %38 = load i32, ptr %37, align 8
  %39 = mul i32 %35, %38
  %40 = add i32 %34, %39
  %41 = zext i32 %40 to i64
  %42 = getelementptr inbounds i8, ptr %31, i64 %41
  store ptr %42, ptr %5, align 8
  store i32 0, ptr %6, align 4
  br label %43

43:                                               ; preds = %58, %28
  %44 = load i32, ptr %6, align 4
  %45 = load ptr, ptr %2, align 8
  %46 = getelementptr inbounds nuw %struct.avifAlphaParams, ptr %45, i32 0, i32 0
  %47 = load i32, ptr %46, align 8
  %48 = icmp ult i32 %44, %47
  br i1 %48, label %49, label %61

49:                                               ; preds = %43
  %50 = load i16, ptr %3, align 2
  %51 = load ptr, ptr %5, align 8
  store i16 %50, ptr %51, align 2
  %52 = load ptr, ptr %2, align 8
  %53 = getelementptr inbounds nuw %struct.avifAlphaParams, ptr %52, i32 0, i32 11
  %54 = load i32, ptr %53, align 8
  %55 = load ptr, ptr %5, align 8
  %56 = zext i32 %54 to i64
  %57 = getelementptr inbounds i8, ptr %55, i64 %56
  store ptr %57, ptr %5, align 8
  br label %58

58:                                               ; preds = %49
  %59 = load i32, ptr %6, align 4
  %60 = add i32 %59, 1
  store i32 %60, ptr %6, align 4
  br label %43, !llvm.loop !4

61:                                               ; preds = %43
  br label %62

62:                                               ; preds = %61
  %63 = load i32, ptr %4, align 4
  %64 = add i32 %63, 1
  store i32 %64, ptr %4, align 4
  br label %22, !llvm.loop !6

65:                                               ; preds = %22
  br label %110

66:                                               ; preds = %1
  store i8 -1, ptr %7, align 1
  store i32 0, ptr %8, align 4
  br label %67

67:                                               ; preds = %106, %66
  %68 = load i32, ptr %8, align 4
  %69 = load ptr, ptr %2, align 8
  %70 = getelementptr inbounds nuw %struct.avifAlphaParams, ptr %69, i32 0, i32 1
  %71 = load i32, ptr %70, align 4
  %72 = icmp ult i32 %68, %71
  br i1 %72, label %73, label %109

73:                                               ; preds = %67
  %74 = load ptr, ptr %2, align 8
  %75 = getelementptr inbounds nuw %struct.avifAlphaParams, ptr %74, i32 0, i32 8
  %76 = load ptr, ptr %75, align 8
  %77 = load ptr, ptr %2, align 8
  %78 = getelementptr inbounds nuw %struct.avifAlphaParams, ptr %77, i32 0, i32 10
  %79 = load i32, ptr %78, align 4
  %80 = load i32, ptr %8, align 4
  %81 = load ptr, ptr %2, align 8
  %82 = getelementptr inbounds nuw %struct.avifAlphaParams, ptr %81, i32 0, i32 9
  %83 = load i32, ptr %82, align 8
  %84 = mul i32 %80, %83
  %85 = add i32 %79, %84
  %86 = zext i32 %85 to i64
  %87 = getelementptr inbounds i8, ptr %76, i64 %86
  store ptr %87, ptr %9, align 8
  store i32 0, ptr %10, align 4
  br label %88

88:                                               ; preds = %102, %73
  %89 = load i32, ptr %10, align 4
  %90 = load ptr, ptr %2, align 8
  %91 = getelementptr inbounds nuw %struct.avifAlphaParams, ptr %90, i32 0, i32 0
  %92 = load i32, ptr %91, align 8
  %93 = icmp ult i32 %89, %92
  br i1 %93, label %94, label %105

94:                                               ; preds = %88
  %95 = load ptr, ptr %9, align 8
  store i8 -1, ptr %95, align 1
  %96 = load ptr, ptr %2, align 8
  %97 = getelementptr inbounds nuw %struct.avifAlphaParams, ptr %96, i32 0, i32 11
  %98 = load i32, ptr %97, align 8
  %99 = load ptr, ptr %9, align 8
  %100 = zext i32 %98 to i64
  %101 = getelementptr inbounds i8, ptr %99, i64 %100
  store ptr %101, ptr %9, align 8
  br label %102

102:                                              ; preds = %94
  %103 = load i32, ptr %10, align 4
  %104 = add i32 %103, 1
  store i32 %104, ptr %10, align 4
  br label %88, !llvm.loop !7

105:                                              ; preds = %88
  br label %106

106:                                              ; preds = %105
  %107 = load i32, ptr %8, align 4
  %108 = add i32 %107, 1
  store i32 %108, ptr %8, align 4
  br label %67, !llvm.loop !8

109:                                              ; preds = %67
  br label %110

110:                                              ; preds = %109, %65
  ret void
}