; Function Attrs: nofree norecurse nosync nounwind memory(write, argmem: readwrite, inaccessiblemem: none) uwtable
define hidden void @avifFillAlpha(ptr noundef readonly captures(none) %0) local_unnamed_addr #0 {
  %2 = getelementptr inbounds nuw i8, ptr %0, i64 36
  %3 = load i32, ptr %2, align 4
  %4 = icmp ugt i32 %3, 8
  br i1 %4, label %12, label %.preheader

.preheader:                                       ; preds = %1
  %5 = getelementptr inbounds nuw i8, ptr %0, i64 4
  %6 = load i32, ptr %5, align 4
  %.not = icmp eq i32 %6, 0
  br i1 %.not, label %.loopexit, label %.lr.ph38

.lr.ph38:                                         ; preds = %.preheader
  %7 = getelementptr inbounds nuw i8, ptr %0, i64 40
  %8 = getelementptr inbounds nuw i8, ptr %0, i64 52
  %9 = getelementptr inbounds nuw i8, ptr %0, i64 48
  %10 = getelementptr inbounds nuw i8, ptr %0, i64 56
  %11 = load i32, ptr %0, align 8
  %.not47 = icmp eq i32 %11, 0
  br i1 %.not47, label %.loopexit, label %.lr.ph38.split

12:                                               ; preds = %1
  %notmask = shl nsw i32 -1, %3
  %13 = trunc i32 %notmask to i16
  %14 = xor i16 %13, -1
  %15 = getelementptr inbounds nuw i8, ptr %0, i64 4
  %16 = load i32, ptr %15, align 4
  %.not49 = icmp eq i32 %16, 0
  br i1 %.not49, label %.loopexit, label %.lr.ph46

.lr.ph46:                                         ; preds = %12
  %17 = getelementptr inbounds nuw i8, ptr %0, i64 40
  %18 = getelementptr inbounds nuw i8, ptr %0, i64 52
  %19 = getelementptr inbounds nuw i8, ptr %0, i64 48
  %20 = getelementptr inbounds nuw i8, ptr %0, i64 56
  %21 = load i32, ptr %0, align 8
  %.not50 = icmp eq i32 %21, 0
  br i1 %.not50, label %.loopexit, label %.lr.ph46.split

.lr.ph46.split:                                   ; preds = %.lr.ph46, %._crit_edge43
  %22 = phi i32 [ %37, %._crit_edge43 ], [ %16, %.lr.ph46 ]
  %23 = phi i32 [ %38, %._crit_edge43 ], [ 1, %.lr.ph46 ]
  %.03044 = phi i32 [ %39, %._crit_edge43 ], [ 0, %.lr.ph46 ]
  %.not51 = icmp eq i32 %23, 0
  br i1 %.not51, label %._crit_edge43, label %.lr.ph42.preheader

.lr.ph42.preheader:                               ; preds = %.lr.ph46.split
  %24 = load ptr, ptr %17, align 8
  %25 = load i32, ptr %19, align 8
  %26 = mul i32 %25, %.03044
  %27 = load i32, ptr %18, align 4
  %28 = add i32 %26, %27
  %29 = zext i32 %28 to i64
  %30 = getelementptr inbounds nuw i8, ptr %24, i64 %29
  br label %.lr.ph42

.lr.ph42:                                         ; preds = %.lr.ph42.preheader, %.lr.ph42
  %.03140 = phi i32 [ %34, %.lr.ph42 ], [ 0, %.lr.ph42.preheader ]
  %.03239 = phi ptr [ %33, %.lr.ph42 ], [ %30, %.lr.ph42.preheader ]
  store i16 %14, ptr %.03239, align 2
  %31 = load i32, ptr %20, align 8
  %32 = zext i32 %31 to i64
  %33 = getelementptr inbounds nuw i8, ptr %.03239, i64 %32
  %34 = add nuw i32 %.03140, 1
  %35 = load i32, ptr %0, align 8
  %36 = icmp ult i32 %34, %35
  br i1 %36, label %.lr.ph42, label %._crit_edge43.loopexit, !llvm.loop !4

._crit_edge43.loopexit:                           ; preds = %.lr.ph42
  %.pre55 = load i32, ptr %15, align 4
  br label %._crit_edge43

._crit_edge43:                                    ; preds = %._crit_edge43.loopexit, %.lr.ph46.split
  %37 = phi i32 [ %.pre55, %._crit_edge43.loopexit ], [ %22, %.lr.ph46.split ]
  %38 = phi i32 [ %35, %._crit_edge43.loopexit ], [ 0, %.lr.ph46.split ]
  %39 = add nuw i32 %.03044, 1
  %40 = icmp ult i32 %39, %37
  br i1 %40, label %.lr.ph46.split, label %.loopexit, !llvm.loop !6

.lr.ph38.split:                                   ; preds = %.lr.ph38, %._crit_edge
  %41 = phi i32 [ %56, %._crit_edge ], [ %6, %.lr.ph38 ]
  %42 = phi i32 [ %57, %._crit_edge ], [ 1, %.lr.ph38 ]
  %.02937 = phi i32 [ %58, %._crit_edge ], [ 0, %.lr.ph38 ]
  %.not48 = icmp eq i32 %42, 0
  br i1 %.not48, label %._crit_edge, label %.lr.ph.preheader

.lr.ph.preheader:                                 ; preds = %.lr.ph38.split
  %43 = load ptr, ptr %7, align 8
  %44 = load i32, ptr %9, align 8
  %45 = mul i32 %44, %.02937
  %46 = load i32, ptr %8, align 4
  %47 = add i32 %45, %46
  %48 = zext i32 %47 to i64
  %49 = getelementptr inbounds nuw i8, ptr %43, i64 %48
  br label %.lr.ph

.lr.ph:                                           ; preds = %.lr.ph.preheader, %.lr.ph
  %.036 = phi i32 [ %53, %.lr.ph ], [ 0, %.lr.ph.preheader ]
  %.02835 = phi ptr [ %52, %.lr.ph ], [ %49, %.lr.ph.preheader ]
  store i8 -1, ptr %.02835, align 1
  %50 = load i32, ptr %10, align 8
  %51 = zext i32 %50 to i64
  %52 = getelementptr inbounds nuw i8, ptr %.02835, i64 %51
  %53 = add nuw i32 %.036, 1
  %54 = load i32, ptr %0, align 8
  %55 = icmp ult i32 %53, %54
  br i1 %55, label %.lr.ph, label %._crit_edge.loopexit, !llvm.loop !8

._crit_edge.loopexit:                             ; preds = %.lr.ph
  %.pre = load i32, ptr %5, align 4
  br label %._crit_edge

._crit_edge:                                      ; preds = %._crit_edge.loopexit, %.lr.ph38.split
  %56 = phi i32 [ %.pre, %._crit_edge.loopexit ], [ %41, %.lr.ph38.split ]
  %57 = phi i32 [ %54, %._crit_edge.loopexit ], [ 0, %.lr.ph38.split ]
  %58 = add nuw i32 %.02937, 1
  %59 = icmp ult i32 %58, %56
  br i1 %59, label %.lr.ph38.split, label %.loopexit, !llvm.loop !9

.loopexit:                                        ; preds = %._crit_edge, %._crit_edge43, %.lr.ph46, %.lr.ph38, %.preheader, %12
  ret void
}